; Function Attrs: mustprogress uwtable
define internal void @_ZL21dce_rpc_find_versionsPvS_S_(ptr noundef %0, ptr nocapture readnone %1, ptr noundef %2) #0 {
  %.not = icmp eq ptr %2, null
  br i1 %.not, label %5, label %4

4:                                                ; preds = %3
  tail call void @_ZN28RpcServiceResponseTimeDialog23addDceRpcProgramVersionEP9_guid_key(ptr noundef nonnull align 8 dereferenceable(316) %2, ptr noundef %0)
  br label %5

5:                                                ; preds = %3, %4
  ret void
}